Certificate:
    Data:
        Version: 1 (0x0)
        Serial Number:
            f9:cf:d4:7b:48:fe:3c:0a
        Signature Algorithm: md5WithRSAEncryption
        Issuer: CN=Test CA
        Validity
            Not Before: Jan 22 11:15:34 2005 GMT
            Not After : Jun  8 11:15:34 2032 GMT
        Subject: CN=Test User
        Subject Public Key Info:
            Public Key Algorithm: rsaEncryption
            RSA Public Key: (1024 bit)
                Modulus (1024 bit):
                    00:ab:40:69:fd:c3:4f:09:8d:56:52:54:94:ac:0a:
                    fc:d4:3f:88:8f:5e:3c:a1:1b:c2:e2:cc:ad:0d:22:
                    95:38:74:33:86:c5:b4:25:bc:9a:1b:33:d5:8d:3f:
                    98:c9:91:4a:c2:ac:99:c2:96:da:32:44:ce:04:a4:
                    1a:c3:91:cc:73:b1:a2:42:94:7a:ee:a0:e0:f3:0b:
                    36:c3:47:71:18:de:ee:6a:3c:9e:05:b0:51:24:29:
                    eb:a2:7f:74:7c:31:f1:a3:79:f8:84:1b:26:d9:af:
                    a2:93:90:a7:d8:c1:ec:0f:bf:ab:e9:63:3d:5b:06:
                    78:e8:30:e1:a4:01:ad:c1:41
                Exponent: 65537 (0x10001)
    Signature Algorithm: md5WithRSAEncryption
        3c:d6:ed:83:c4:26:34:2a:f5:b6:9c:22:2d:9e:4a:8f:50:77:
        b5:f3:bb:e3:8d:93:13:05:19:2d:65:bb:05:1b:b4:cb:e1:1e:
        a3:73:97:f1:0a:d4:aa:b1:a0:2f:90:84:74:13:fd:5c:e5:cf:
        9b:a4:5d:30:c6:e2:9a:fd:35:7c:13:c0:9e:7f:c3:5f:67:8c:
        06:b8:ed:24:a4:11:76:18:f2:d7:81:a4:24:0a:ff:3c:66:0d:
        c0:cd:79:8a:0c:46:87:cc:84:db:29:af:25:c5:cf:1f:49:1c:
        46:c1:61:f9:99:91:09:cc:af:1a:6c:e7:80:87:5e:e8:a4:02:
        fb:84
-----BEGIN CERTIFICATE-----
MIIBnTCCAQYCCQD5z9R7SP48CjANBgkqhkiG9w0BAQQFADASMRAwDgYDVQQDEwdU
ZXN0IENBMB4XDTA1MDEyMjExMTUzNFoXDTMyMDYwODExMTUzNFowFDESMBAGA1UE
AxMJVGVzdCBVc2VyMIGfMA0GCSqGSIb3DQEBAQUAA4GNADCBiQKBgQCrQGn9w08J
jVZSVJSsCvzUP4iPXjyhG8LizK0NIpU4dDOGxbQlvJobM9WNP5jJkUrCrJnCltoy
RM4EpBrDkcxzsaJClHruoODzCzbDR3EY3u5qPJ4FsFEkKeuif3R8MfGjefiEGybZ
r6KTkKfYwewPv6vpYz1bBnjoMOGkAa3BQQIDAQABMA0GCSqGSIb3DQEBBAUAA4GB
ADzW7YPEJjQq9bacIi2eSo9Qd7Xzu+ONkxMFGS1luwUbtMvhHqNzl/EK1KqxoC+Q
hHQT/Vzlz5ukXTDG4pr9NXwTwJ5/w19njAa47SSkEXYY8teBpCQK/zxmDcDNeYoM
RofMhNspryXFzx9JHEbBYfmZkQnMrxps54CHXuikAvuE
-----END CERTIFICATE-----
